; ModuleID = '62/2560.c'
source_filename = "62/2560.c"
target datalayout = "e-m:e-p270:32:32-p271:32:32-p272:64:64-i64:64-f80:128-n8:16:32:64-S128"
target triple = "x86_64-pc-linux-gnu"

@.str = private unnamed_addr constant [3 x i8] c"%s\00", align 1

; Function Attrs: noinline nounwind uwtable
define dso_local i32 @main() #0 {
  %1 = alloca i32, align 4
  %2 = alloca [100 x i8], align 16
  %3 = alloca [100 x i8], align 16
  %4 = alloca i32, align 4
  %5 = alloca i32, align 4
  store i32 0, i32* %1, align 4
  %6 = getelementptr inbounds [100 x i8], [100 x i8]* %2, i64 0, i64 0
  %7 = call i32 (i8*, ...) bitcast (i32 (...)* @gets to i32 (i8*, ...)*)(i8* %6)
  store i32 0, i32* %5, align 4
  store i32 0, i32* %4, align 4
  br label %8

8:                                                ; preds = %48, %0
  %9 = load i32, i32* %4, align 4
  %10 = sext i32 %9 to i64
  %11 = getelementptr inbounds [100 x i8], [100 x i8]* %2, i64 0, i64 %10
  %12 = load i8, i8* %11, align 1
  %13 = sext i8 %12 to i32
  %14 = icmp ne i32 %13, 0
  br i1 %14, label %15, label %51

15:                                               ; preds = %8
  %16 = load i32, i32* %4, align 4
  %17 = sext i32 %16 to i64
  %18 = getelementptr inbounds [100 x i8], [100 x i8]* %2, i64 0, i64 %17
  %19 = load i8, i8* %18, align 1
  %20 = sext i8 %19 to i32
  %21 = icmp ne i32 %20, 32
  br i1 %21, label %37, label %22

22:                                               ; preds = %15
  %23 = load i32, i32* %4, align 4
  %24 = sext i32 %23 to i64
  %25 = getelementptr inbounds [100 x i8], [100 x i8]* %2, i64 0, i64 %24
  %26 = load i8, i8* %25, align 1
  %27 = sext i8 %26 to i32
  %28 = icmp eq i32 %27, 32
  br i1 %28, label %29, label %47

29:                                               ; preds = %22
  %30 = load i32, i32* %4, align 4
  %31 = add nsw i32 %30, 1
  %32 = sext i32 %31 to i64
  %33 = getelementptr inbounds [100 x i8], [100 x i8]* %2, i64 0, i64 %32
  %34 = load i8, i8* %33, align 1
  %35 = sext i8 %34 to i32
  %36 = icmp ne i32 %35, 32
  br i1 %36, label %37, label %47

37:                                               ; preds = %29, %15
  %38 = load i32, i32* %4, align 4
  %39 = sext i32 %38 to i64
  %40 = getelementptr inbounds [100 x i8], [100 x i8]* %2, i64 0, i64 %39
  %41 = load i8, i8* %40, align 1
  %42 = load i32, i32* %5, align 4
  %43 = sext i32 %42 to i64
  %44 = getelementptr inbounds [100 x i8], [100 x i8]* %3, i64 0, i64 %43
  store i8 %41, i8* %44, align 1
  %45 = load i32, i32* %5, align 4
  %46 = add nsw i32 %45, 1
  store i32 %46, i32* %5, align 4
  br label %47

47:                                               ; preds = %37, %29, %22
  br label %48

48:                                               ; preds = %47
  %49 = load i32, i32* %4, align 4
  %50 = add nsw i32 %49, 1
  store i32 %50, i32* %4, align 4
  br label %8

51:                                               ; preds = %8
  %52 = load i32, i32* %5, align 4
  %53 = sext i32 %52 to i64
  %54 = getelementptr inbounds [100 x i8], [100 x i8]* %3, i64 0, i64 %53
  store i8 0, i8* %54, align 1
  %55 = getelementptr inbounds [100 x i8], [100 x i8]* %3, i64 0, i64 0
  %56 = call i32 (i8*, ...) @printf(i8* getelementptr inbounds ([3 x i8], [3 x i8]* @.str, i64 0, i64 0), i8* %55)
  ret i32 0
}

declare dso_local i32 @gets(...) #1

declare dso_local i32 @printf(i8*, ...) #1


!llvm.module.flags = !{!0}
!llvm.ident = !{!1}

!0 = !{i32 1, !"wchar_size", i32 4}
!1 = !{!"clang version 10.0.0-4ubuntu1 "}
